target datalayout = "e-m:e-p270:32:32-p271:32:32-p272:64:64-i64:64-i128:128-f80:128-n8:16:32:64-S128"
target triple = "x86_64-pc-linux-gnu"

%class.mpz = type { i32, i8, ptr }
%class.mpbq = type <{ %class.mpz, i32, [4 x i8] }>
%class.mpbq_manager = type { ptr, %class.mpz, %class.mpz, %class.mpbq, %class.mpz, %class.mpz, %class.mpz, %class.mpbq, %class.mpbq, %class.mpz, %class.mpz, %class.mpz }

; Function Attrs: mustprogress nounwind uwtable
define linkonce_odr hidden noundef i32 @_ZN11mpz_managerILb0EE4signERK3mpz(ptr noundef nonnull align 8 dereferenceable(16) %0) #6 comdat align 2 {
  %2 = alloca ptr, align 8
  store ptr %0, ptr %2, align 8, !tbaa !10
  %3 = load ptr, ptr %2, align 8, !tbaa !10
  %4 = getelementptr inbounds nuw %class.mpz, ptr %3, i32 0, i32 0
  %5 = load i32, ptr %4, align 8, !tbaa !24
  ret i32 %5
}

; Function Attrs: mustprogress uwtable
define linkonce_odr hidden noundef zeroext i1 @_ZN11mpz_managerILb0EE7is_zeroERK3mpz(ptr noundef nonnull align 8 dereferenceable(16) %0) #4 comdat align 2 {
  %2 = alloca ptr, align 8
  store ptr %0, ptr %2, align 8, !tbaa !10
  %3 = load ptr, ptr %2, align 8, !tbaa !10
  %4 = call noundef i32 @_ZN11mpz_managerILb0EE4signERK3mpz(ptr noundef nonnull align 8 dereferenceable(16) %3)
  %5 = icmp eq i32 %4, 0
  ret i1 %5
}

; Function Attrs: mustprogress nounwind uwtable
define linkonce_odr hidden void @_ZN3mpzC2Ei(ptr noundef nonnull align 8 dereferenceable(16) %0, i32 noundef %1) unnamed_addr #6 comdat align 2 {
  %3 = alloca ptr, align 8
  %4 = alloca i32, align 4
  store ptr %0, ptr %3, align 8, !tbaa !10
  store i32 %1, ptr %4, align 4, !tbaa !12
  %5 = load ptr, ptr %3, align 8
  %6 = getelementptr inbounds nuw %class.mpz, ptr %5, i32 0, i32 0
  %7 = load i32, ptr %4, align 4, !tbaa !12
  store i32 %7, ptr %6, align 8, !tbaa !24
  %8 = getelementptr inbounds nuw %class.mpz, ptr %5, i32 0, i32 1
  %9 = load i8, ptr %8, align 4
  %10 = and i8 %9, -2
  %11 = or i8 %10, 0
  store i8 %11, ptr %8, align 4
  %12 = getelementptr inbounds nuw %class.mpz, ptr %5, i32 0, i32 1
  %13 = load i8, ptr %12, align 4
  %14 = and i8 %13, -3
  %15 = or i8 %14, 0
  store i8 %15, ptr %12, align 4
  %16 = getelementptr inbounds nuw %class.mpz, ptr %5, i32 0, i32 2
  store ptr null, ptr %16, align 8, !tbaa !25
  ret void
}

; Function Attrs: mustprogress nounwind uwtable
define linkonce_odr hidden noundef zeroext i1 @_ZN11mpz_managerILb0EE6is_negERK3mpz(ptr noundef nonnull align 8 dereferenceable(16) %0) #6 comdat align 2 {
  %2 = alloca ptr, align 8
  store ptr %0, ptr %2, align 8, !tbaa !10
  %3 = load ptr, ptr %2, align 8, !tbaa !10
  %4 = call noundef i32 @_ZN11mpz_managerILb0EE4signERK3mpz(ptr noundef nonnull align 8 dereferenceable(16) %3)
  %5 = icmp slt i32 %4, 0
  ret i1 %5
}

; Function Attrs: mustprogress uwtable
define hidden void @_ZN12mpbq_manager9normalizeER4mpbq(ptr noundef nonnull align 8 dereferenceable(208) %0, ptr noundef nonnull align 8 dereferenceable(20) %1) #4 align 2 {
  %3 = alloca ptr, align 8
  %4 = alloca ptr, align 8
  %5 = alloca i32, align 4
  store ptr %0, ptr %3, align 8, !tbaa !20
  store ptr %1, ptr %4, align 8, !tbaa !3
  %6 = load ptr, ptr %3, align 8
  %7 = load ptr, ptr %4, align 8, !tbaa !3
  %8 = getelementptr inbounds nuw %class.mpbq, ptr %7, i32 0, i32 1
  %9 = load i32, ptr %8, align 8, !tbaa !14
  %10 = icmp eq i32 %9, 0
  br i1 %10, label %11, label %12

11:                                               ; preds = %2
  br label %45

12:                                               ; preds = %2
  %13 = load ptr, ptr %4, align 8, !tbaa !3
  %14 = getelementptr inbounds nuw %class.mpbq, ptr %13, i32 0, i32 0
  %15 = call noundef zeroext i1 @_ZN11mpz_managerILb0EE7is_zeroERK3mpz(ptr noundef nonnull align 8 dereferenceable(16) %14)
  br i1 %15, label %16, label %19

16:                                               ; preds = %12
  %17 = load ptr, ptr %4, align 8, !tbaa !3
  %18 = getelementptr inbounds nuw %class.mpbq, ptr %17, i32 0, i32 1
  store i32 0, ptr %18, align 8, !tbaa !14
  br label %45

19:                                               ; preds = %12
  call void @llvm.lifetime.start.p0(i64 4, ptr %5) #3
  %20 = getelementptr inbounds nuw %class.mpbq_manager, ptr %6, i32 0, i32 0
  %21 = load ptr, ptr %20, align 8, !tbaa !26
  %22 = load ptr, ptr %4, align 8, !tbaa !3
  %23 = getelementptr inbounds nuw %class.mpbq, ptr %22, i32 0, i32 0
  %24 = call noundef i32 @_ZN11mpz_managerILb0EE21power_of_two_multipleERK3mpz(ptr noundef nonnull align 8 dereferenceable(600) %21, ptr noundef nonnull align 8 dereferenceable(16) %23)
  store i32 %24, ptr %5, align 4, !tbaa !12
  %25 = load i32, ptr %5, align 4, !tbaa !12
  %26 = load ptr, ptr %4, align 8, !tbaa !3
  %27 = getelementptr inbounds nuw %class.mpbq, ptr %26, i32 0, i32 1
  %28 = load i32, ptr %27, align 8, !tbaa !14
  %29 = icmp ugt i32 %25, %28
  br i1 %29, label %30, label %34

30:                                               ; preds = %19
  %31 = load ptr, ptr %4, align 8, !tbaa !3
  %32 = getelementptr inbounds nuw %class.mpbq, ptr %31, i32 0, i32 1
  %33 = load i32, ptr %32, align 8, !tbaa !14
  store i32 %33, ptr %5, align 4, !tbaa !12
  br label %34

34:                                               ; preds = %30, %19
  %35 = getelementptr inbounds nuw %class.mpbq_manager, ptr %6, i32 0, i32 0
  %36 = load ptr, ptr %35, align 8, !tbaa !26
  %37 = load ptr, ptr %4, align 8, !tbaa !3
  %38 = getelementptr inbounds nuw %class.mpbq, ptr %37, i32 0, i32 0
  %39 = load i32, ptr %5, align 4, !tbaa !12
  call void @_ZN11mpz_managerILb0EE13machine_div2kER3mpzj(ptr noundef nonnull align 8 dereferenceable(600) %36, ptr noundef nonnull align 8 dereferenceable(16) %38, i32 noundef %39)
  %40 = load i32, ptr %5, align 4, !tbaa !12
  %41 = load ptr, ptr %4, align 8, !tbaa !3
  %42 = getelementptr inbounds nuw %class.mpbq, ptr %41, i32 0, i32 1
  %43 = load i32, ptr %42, align 8, !tbaa !14
  %44 = sub i32 %43, %40
  store i32 %44, ptr %42, align 8, !tbaa !14
  call void @llvm.lifetime.end.p0(i64 4, ptr %5) #3
  br label %45

45:                                               ; preds = %34, %16, %11
  ret void
}

; Function Attrs: mustprogress uwtable
define linkonce_odr hidden void @_ZN11mpz_managerILb0EE3decER3mpz(ptr noundef nonnull align 8 dereferenceable(600) %0, ptr noundef nonnull align 8 dereferenceable(16) %1) #4 comdat align 2 {
  %3 = alloca ptr, align 8
  %4 = alloca ptr, align 8
  %5 = alloca %class.mpz, align 8
  store ptr %0, ptr %3, align 8, !tbaa !22
  store ptr %1, ptr %4, align 8, !tbaa !10
  %6 = load ptr, ptr %3, align 8
  %7 = load ptr, ptr %4, align 8, !tbaa !10
  call void @llvm.lifetime.start.p0(i64 16, ptr %5) #3
  call void @_ZN3mpzC2Ei(ptr noundef nonnull align 8 dereferenceable(16) %5, i32 noundef -1)
  %8 = load ptr, ptr %4, align 8, !tbaa !10
  call void @_ZN11mpz_managerILb0EE3addERK3mpzS3_RS1_(ptr noundef nonnull align 8 dereferenceable(600) %6, ptr noundef nonnull align 8 dereferenceable(16) %7, ptr noundef nonnull align 8 dereferenceable(16) %5, ptr noundef nonnull align 8 dereferenceable(16) %8)
  call void @llvm.lifetime.end.p0(i64 16, ptr %5) #3
  ret void
}

; Function Attrs: mustprogress uwtable
define hidden noundef zeroext i1 @_ZN12mpbq_manager10root_lowerER4mpbqj(ptr noundef nonnull align 8 dereferenceable(208) %0, ptr noundef nonnull align 8 dereferenceable(20) %1, i32 noundef %2) #4 align 2 {
  %4 = alloca i1, align 1
  %5 = alloca ptr, align 8
  %6 = alloca ptr, align 8
  %7 = alloca i32, align 4
  %8 = alloca i8, align 1
  %9 = alloca i32, align 4
  store ptr %0, ptr %5, align 8, !tbaa !20
  store ptr %1, ptr %6, align 8, !tbaa !3
  store i32 %2, ptr %7, align 4, !tbaa !12
  %10 = load ptr, ptr %5, align 8
  call void @llvm.lifetime.start.p0(i64 1, ptr %8) #3
  %11 = getelementptr inbounds nuw %class.mpbq_manager, ptr %10, i32 0, i32 0
  %12 = load ptr, ptr %11, align 8, !tbaa !26
  %13 = load ptr, ptr %6, align 8, !tbaa !3
  %14 = getelementptr inbounds nuw %class.mpbq, ptr %13, i32 0, i32 0
  %15 = load i32, ptr %7, align 4, !tbaa !12
  %16 = call noundef zeroext i1 @_ZN11mpz_managerILb0EE4rootER3mpzj(ptr noundef nonnull align 8 dereferenceable(600) %12, ptr noundef nonnull align 8 dereferenceable(16) %14, i32 noundef %15)
  %17 = zext i1 %16 to i8
  store i8 %17, ptr %8, align 1, !tbaa !34
  %18 = load i8, ptr %8, align 1, !tbaa !34, !range !36, !noundef !37
  %19 = trunc i8 %18 to i1
  br i1 %19, label %25, label %20

20:                                               ; preds = %3
  %21 = getelementptr inbounds nuw %class.mpbq_manager, ptr %10, i32 0, i32 0
  %22 = load ptr, ptr %21, align 8, !tbaa !26
  %23 = load ptr, ptr %6, align 8, !tbaa !3
  %24 = getelementptr inbounds nuw %class.mpbq, ptr %23, i32 0, i32 0
  call void @_ZN11mpz_managerILb0EE3decER3mpz(ptr noundef nonnull align 8 dereferenceable(600) %22, ptr noundef nonnull align 8 dereferenceable(16) %24)
  br label %25

25:                                               ; preds = %20, %3
  %26 = load ptr, ptr %6, align 8, !tbaa !3
  %27 = getelementptr inbounds nuw %class.mpbq, ptr %26, i32 0, i32 1
  %28 = load i32, ptr %27, align 8, !tbaa !14
  %29 = load i32, ptr %7, align 4, !tbaa !12
  %30 = urem i32 %28, %29
  %31 = icmp eq i32 %30, 0
  br i1 %31, label %32, label %41

32:                                               ; preds = %25
  %33 = load i32, ptr %7, align 4, !tbaa !12
  %34 = load ptr, ptr %6, align 8, !tbaa !3
  %35 = getelementptr inbounds nuw %class.mpbq, ptr %34, i32 0, i32 1
  %36 = load i32, ptr %35, align 8, !tbaa !14
  %37 = udiv i32 %36, %33
  store i32 %37, ptr %35, align 8, !tbaa !14
  %38 = load ptr, ptr %6, align 8, !tbaa !3
  call void @_ZN12mpbq_manager9normalizeER4mpbq(ptr noundef nonnull align 8 dereferenceable(208) %10, ptr noundef nonnull align 8 dereferenceable(20) %38)
  %39 = load i8, ptr %8, align 1, !tbaa !34, !range !36, !noundef !37
  %40 = trunc i8 %39 to i1
  store i1 %40, ptr %4, align 1
  store i32 1, ptr %9, align 4
  br label %63

41:                                               ; preds = %25
  %42 = load ptr, ptr %6, align 8, !tbaa !3
  %43 = getelementptr inbounds nuw %class.mpbq, ptr %42, i32 0, i32 0
  %44 = call noundef zeroext i1 @_ZN11mpz_managerILb0EE6is_negERK3mpz(ptr noundef nonnull align 8 dereferenceable(16) %43)
  br i1 %44, label %45, label %52

45:                                               ; preds = %41
  %46 = load i32, ptr %7, align 4, !tbaa !12
  %47 = load ptr, ptr %6, align 8, !tbaa !3
  %48 = getelementptr inbounds nuw %class.mpbq, ptr %47, i32 0, i32 1
  %49 = load i32, ptr %48, align 8, !tbaa !14
  %50 = udiv i32 %49, %46
  store i32 %50, ptr %48, align 8, !tbaa !14
  %51 = load ptr, ptr %6, align 8, !tbaa !3
  call void @_ZN12mpbq_manager9normalizeER4mpbq(ptr noundef nonnull align 8 dereferenceable(208) %10, ptr noundef nonnull align 8 dereferenceable(20) %51)
  store i1 false, ptr %4, align 1
  store i32 1, ptr %9, align 4
  br label %63

52:                                               ; preds = %41
  %53 = load i32, ptr %7, align 4, !tbaa !12
  %54 = load ptr, ptr %6, align 8, !tbaa !3
  %55 = getelementptr inbounds nuw %class.mpbq, ptr %54, i32 0, i32 1
  %56 = load i32, ptr %55, align 8, !tbaa !14
  %57 = udiv i32 %56, %53
  store i32 %57, ptr %55, align 8, !tbaa !14
  %58 = load ptr, ptr %6, align 8, !tbaa !3
  %59 = getelementptr inbounds nuw %class.mpbq, ptr %58, i32 0, i32 1
  %60 = load i32, ptr %59, align 8, !tbaa !14
  %61 = add i32 %60, 1
  store i32 %61, ptr %59, align 8, !tbaa !14
  %62 = load ptr, ptr %6, align 8, !tbaa !3
  call void @_ZN12mpbq_manager9normalizeER4mpbq(ptr noundef nonnull align 8 dereferenceable(208) %10, ptr noundef nonnull align 8 dereferenceable(20) %62)
  store i1 false, ptr %4, align 1
  store i32 1, ptr %9, align 4
  br label %63

63:                                               ; preds = %52, %45, %32
  call void @llvm.lifetime.end.p0(i64 1, ptr %8) #3
  %64 = load i1, ptr %4, align 1
  ret i1 %64
}