; Function Attrs: mustprogress uwtable
define hidden noundef zeroext i1 @_ZN12mpbq_manager10root_lowerER4mpbqj(ptr noundef nonnull readonly align 8 captures(none) dereferenceable(208) %0, ptr noundef nonnull align 8 dereferenceable(20) %1, i32 noundef %2) local_unnamed_addr #3 align 2 {
  %4 = alloca %class.mpz, align 8
  %5 = load ptr, ptr %0, align 8, !tbaa !26
  %6 = tail call noundef zeroext i1 @_ZN11mpz_managerILb0EE4rootER3mpzj(ptr noundef nonnull align 8 dereferenceable(600) %5, ptr noundef nonnull align 8 dereferenceable(16) %1, i32 noundef %2)
  br i1 %6, label %11, label %7

7:                                                ; preds = %3
  %8 = load ptr, ptr %0, align 8, !tbaa !26
  call void @llvm.lifetime.start.p0(i64 16, ptr nonnull %4) #18
  store i32 -1, ptr %4, align 8, !tbaa !3
  %9 = getelementptr inbounds nuw i8, ptr %4, i64 4
  store i8 0, ptr %9, align 4
  %10 = getelementptr inbounds nuw i8, ptr %4, i64 8
  store ptr null, ptr %10, align 8, !tbaa !10
  call void @_ZN11mpz_managerILb0EE3addERK3mpzS3_RS1_(ptr noundef nonnull align 8 dereferenceable(600) %8, ptr noundef nonnull align 8 dereferenceable(16) %1, ptr noundef nonnull align 8 dereferenceable(16) %4, ptr noundef nonnull align 8 dereferenceable(16) %1)
  call void @llvm.lifetime.end.p0(i64 16, ptr nonnull %4) #18
  br label %11

11:                                               ; preds = %7, %3
  %12 = getelementptr inbounds nuw i8, ptr %1, i64 16
  %13 = load i32, ptr %12, align 8, !tbaa !13
  %14 = urem i32 %13, %2
  %15 = udiv i32 %13, %2
  %16 = icmp eq i32 %14, 0
  br i1 %16, label %17, label %23

17:                                               ; preds = %11
  %18 = udiv i32 %13, %2
  store i32 %18, ptr %12, align 8, !tbaa !13
  %19 = icmp ugt i32 %2, %13
  br i1 %19, label %_ZN12mpbq_manager9normalizeER4mpbq.exit, label %20

20:                                               ; preds = %17
  %21 = load i32, ptr %1, align 8, !tbaa !3
  %22 = icmp eq i32 %21, 0
  br i1 %22, label %_ZN12mpbq_manager9normalizeER4mpbq.exit.sink.split, label %_ZN12mpbq_manager9normalizeER4mpbq.exit.sink.split.sink.split

23:                                               ; preds = %11
  %24 = load i32, ptr %1, align 8, !tbaa !3
  %25 = icmp slt i32 %24, 0
  br i1 %25, label %26, label %28

26:                                               ; preds = %23
  store i32 %15, ptr %12, align 8, !tbaa !13
  %27 = icmp ugt i32 %2, %13
  br i1 %27, label %_ZN12mpbq_manager9normalizeER4mpbq.exit, label %_ZN12mpbq_manager9normalizeER4mpbq.exit.sink.split.sink.split

28:                                               ; preds = %23
  %29 = add i32 %15, 1
  store i32 %29, ptr %12, align 8, !tbaa !13
  %30 = icmp eq i32 %29, 0
  br i1 %30, label %_ZN12mpbq_manager9normalizeER4mpbq.exit, label %31

31:                                               ; preds = %28
  %32 = icmp eq i32 %24, 0
  br i1 %32, label %_ZN12mpbq_manager9normalizeER4mpbq.exit.sink.split, label %_ZN12mpbq_manager9normalizeER4mpbq.exit.sink.split.sink.split

_ZN12mpbq_manager9normalizeER4mpbq.exit.sink.split.sink.split: ; preds = %31, %26, %20
  %.0.ph.ph = phi i1 [ %6, %20 ], [ false, %26 ], [ false, %31 ]
  %33 = load ptr, ptr %0, align 8, !tbaa !26
  %34 = call noundef i32 @_ZN11mpz_managerILb0EE21power_of_two_multipleERK3mpz(ptr noundef nonnull align 8 dereferenceable(600) %33, ptr noundef nonnull align 8 dereferenceable(20) %1)
  %35 = load i32, ptr %12, align 8, !tbaa !13
  %spec.select.i23 = call i32 @llvm.umin.i32(i32 %34, i32 %35)
  %36 = load ptr, ptr %0, align 8, !tbaa !26
  call void @_ZN11mpz_managerILb0EE13machine_div2kER3mpzj(ptr noundef nonnull align 8 dereferenceable(600) %36, ptr noundef nonnull align 8 dereferenceable(20) %1, i32 noundef %spec.select.i23)
  %37 = load i32, ptr %12, align 8, !tbaa !13
  %38 = sub i32 %37, %spec.select.i23
  br label %_ZN12mpbq_manager9normalizeER4mpbq.exit.sink.split

_ZN12mpbq_manager9normalizeER4mpbq.exit.sink.split: ; preds = %_ZN12mpbq_manager9normalizeER4mpbq.exit.sink.split.sink.split, %31, %20
  %.sink.i25.sink = phi i32 [ 0, %20 ], [ 0, %31 ], [ %38, %_ZN12mpbq_manager9normalizeER4mpbq.exit.sink.split.sink.split ]
  %.0.ph = phi i1 [ %6, %20 ], [ false, %31 ], [ %.0.ph.ph, %_ZN12mpbq_manager9normalizeER4mpbq.exit.sink.split.sink.split ]
  store i32 %.sink.i25.sink, ptr %12, align 8, !tbaa !13
  br label %_ZN12mpbq_manager9normalizeER4mpbq.exit

_ZN12mpbq_manager9normalizeER4mpbq.exit:          ; preds = %_ZN12mpbq_manager9normalizeER4mpbq.exit.sink.split, %28, %26, %17
  %.0 = phi i1 [ %6, %17 ], [ false, %26 ], [ false, %28 ], [ %.0.ph, %_ZN12mpbq_manager9normalizeER4mpbq.exit.sink.split ]
  ret i1 %.0
}